target datalayout = "e-m:e-p270:32:32-p271:32:32-p272:64:64-i64:64-i128:128-f80:128-n8:16:32:64-S128"
target triple = "x86_64-pc-linux-gnu"

%struct.codelength = type { i32, i32, i32, i32 }

; Function Attrs: nounwind uwtable
define internal i32 @comp_codes(ptr noundef %0, ptr noundef %1, ptr noundef %2) #0 {
  %4 = alloca i32, align 4
  %5 = alloca ptr, align 8
  %6 = alloca ptr, align 8
  %7 = alloca ptr, align 8
  %8 = alloca ptr, align 8
  %9 = alloca ptr, align 8
  %10 = alloca i32, align 4
  store ptr %0, ptr %5, align 8, !tbaa !36
  store ptr %1, ptr %6, align 8, !tbaa !36
  store ptr %2, ptr %7, align 8, !tbaa !36
  call void @llvm.lifetime.start.p0(i64 8, ptr %8) #5
  %11 = load ptr, ptr %5, align 8, !tbaa !36
  store ptr %11, ptr %8, align 8, !tbaa !14
  call void @llvm.lifetime.start.p0(i64 8, ptr %9) #5
  %12 = load ptr, ptr %6, align 8, !tbaa !36
  store ptr %12, ptr %9, align 8, !tbaa !14
  %13 = load ptr, ptr %8, align 8, !tbaa !14
  %14 = getelementptr inbounds nuw %struct.codelength, ptr %13, i32 0, i32 1
  %15 = load i32, ptr %14, align 4, !tbaa !21
  %16 = load ptr, ptr %9, align 8, !tbaa !14
  %17 = getelementptr inbounds nuw %struct.codelength, ptr %16, i32 0, i32 1
  %18 = load i32, ptr %17, align 4, !tbaa !21
  %19 = icmp sgt i32 %15, %18
  br i1 %19, label %20, label %21

20:                                               ; preds = %3
  store i32 1, ptr %4, align 4
  store i32 1, ptr %10, align 4
  br label %40

21:                                               ; preds = %3
  %22 = load ptr, ptr %8, align 8, !tbaa !14
  %23 = getelementptr inbounds nuw %struct.codelength, ptr %22, i32 0, i32 1
  %24 = load i32, ptr %23, align 4, !tbaa !21
  %25 = load ptr, ptr %9, align 8, !tbaa !14
  %26 = getelementptr inbounds nuw %struct.codelength, ptr %25, i32 0, i32 1
  %27 = load i32, ptr %26, align 4, !tbaa !21
  %28 = icmp slt i32 %24, %27
  br i1 %28, label %29, label %30

29:                                               ; preds = %21
  store i32 -1, ptr %4, align 4
  store i32 1, ptr %10, align 4
  br label %40

30:                                               ; preds = %21
  %31 = load ptr, ptr %8, align 8, !tbaa !14
  %32 = getelementptr inbounds nuw %struct.codelength, ptr %31, i32 0, i32 2
  %33 = load i32, ptr %32, align 4, !tbaa !25
  %34 = load ptr, ptr %9, align 8, !tbaa !14
  %35 = getelementptr inbounds nuw %struct.codelength, ptr %34, i32 0, i32 2
  %36 = load i32, ptr %35, align 4, !tbaa !25
  %37 = icmp ugt i32 %33, %36
  br i1 %37, label %38, label %39

38:                                               ; preds = %30
  store i32 1, ptr %4, align 4
  store i32 1, ptr %10, align 4
  br label %40

39:                                               ; preds = %30
  store i32 -1, ptr %4, align 4
  store i32 1, ptr %10, align 4
  br label %40

40:                                               ; preds = %39, %38, %29, %20
  call void @llvm.lifetime.end.p0(i64 8, ptr %9) #5
  call void @llvm.lifetime.end.p0(i64 8, ptr %8) #5
  %41 = load i32, ptr %4, align 4
  ret i32 %41
}