; Function Attrs: mustprogress nofree norecurse nosync nounwind willreturn memory(argmem: read) uwtable
define internal range(i32 -1, 2) i32 @comp_codes(ptr noundef readonly captures(none) %0, ptr noundef readonly captures(none) %1, ptr readnone captures(none) %2) #3 {
  %4 = getelementptr inbounds nuw i8, ptr %0, i64 4
  %5 = load i32, ptr %4, align 4, !tbaa !12
  %6 = getelementptr inbounds nuw i8, ptr %1, i64 4
  %7 = load i32, ptr %6, align 4, !tbaa !12
  %8 = icmp sgt i32 %5, %7
  br i1 %8, label %17, label %9

9:                                                ; preds = %3
  %10 = icmp slt i32 %5, %7
  br i1 %10, label %17, label %11

11:                                               ; preds = %9
  %12 = getelementptr inbounds nuw i8, ptr %0, i64 8
  %13 = load i32, ptr %12, align 4, !tbaa !15
  %14 = getelementptr inbounds nuw i8, ptr %1, i64 8
  %15 = load i32, ptr %14, align 4, !tbaa !15
  %16 = icmp ugt i32 %13, %15
  %. = select i1 %16, i32 1, i32 -1
  br label %17

17:                                               ; preds = %11, %9, %3
  %.0 = phi i32 [ 1, %3 ], [ -1, %9 ], [ %., %11 ]
  ret i32 %.0
}